target datalayout = "e-m:e-p270:32:32-p271:32:32-p272:64:64-i64:64-i128:128-f80:128-n8:16:32:64-S128"
target triple = "x86_64-pc-linux-gnu"

%struct.ReplicationSlotCtlData = type { [1 x %struct.ReplicationSlot] }
%struct.ReplicationSlot = type { i8, i8, i32, i8, i8, i32, i32, %struct.ReplicationSlotPersistentData, %struct.LWLock, %struct.ConditionVariable, i32, i64, i64, i64, i64, i64 }
%struct.ReplicationSlotPersistentData = type { %struct.nameData, i32, i32, i32, i32, i64, i32, i64, i64, i8, %struct.nameData, i8, i8 }
%struct.nameData = type { [64 x i8] }
%struct.LWLock = type { i16, %struct.pg_atomic_uint32, %struct.proclist_head }
%struct.pg_atomic_uint32 = type { i32 }
%struct.proclist_head = type { i32, i32 }
%struct.ConditionVariable = type { i8, %struct.proclist_head }

@ReplicationSlotCtl = dso_local global ptr null, align 8

; Function Attrs: nounwind uwtable
define dso_local i32 @ReplicationSlotIndex(ptr noundef %0) #0 {
  %2 = alloca ptr, align 8
  store ptr %0, ptr %2, align 8
  %3 = load ptr, ptr %2, align 8
  %4 = load ptr, ptr @ReplicationSlotCtl, align 8
  %5 = getelementptr inbounds nuw %struct.ReplicationSlotCtlData, ptr %4, i32 0, i32 0
  %6 = getelementptr inbounds [1 x %struct.ReplicationSlot], ptr %5, i64 0, i64 0
  %7 = ptrtoint ptr %3 to i64
  %8 = ptrtoint ptr %6 to i64
  %9 = sub i64 %7, %8
  %10 = sdiv exact i64 %9, 280
  %11 = trunc i64 %10 to i32
  ret i32 %11
}