; Function Attrs: mustprogress nofree norecurse nosync nounwind willreturn memory(read, argmem: none, inaccessiblemem: none) uwtable
define dso_local i32 @ReplicationSlotIndex(ptr noundef %0) local_unnamed_addr #6 {
  %2 = load ptr, ptr @ReplicationSlotCtl, align 8
  %3 = ptrtoint ptr %0 to i64
  %4 = ptrtoint ptr %2 to i64
  %5 = sub i64 %3, %4
  %6 = sdiv exact i64 %5, 280
  %7 = trunc i64 %6 to i32
  ret i32 %7
}